target datalayout = "e-m:e-p270:32:32-p271:32:32-p272:64:64-i64:64-i128:128-f80:128-n8:16:32:64-S128"
target triple = "x86_64-pc-linux-gnu"

%struct.edgeinfo = type { ptr, %struct.pointf_s, ptr, %struct.pointf_s }
%struct.pointf_s = type { double, double }

; Function Attrs: nounwind uwtable
define internal i32 @cmpitems(ptr noundef %0, ptr noundef %1) #0 {
  %3 = alloca i32, align 4
  %4 = alloca ptr, align 8
  %5 = alloca ptr, align 8
  %6 = alloca ptr, align 8
  %7 = alloca ptr, align 8
  %8 = alloca i32, align 4
  store ptr %0, ptr %4, align 8, !tbaa !3
  store ptr %1, ptr %5, align 8, !tbaa !3
  call void @llvm.lifetime.start.p0(i64 8, ptr %6) #11
  %9 = load ptr, ptr %4, align 8, !tbaa !3
  store ptr %9, ptr %6, align 8, !tbaa !3
  call void @llvm.lifetime.start.p0(i64 8, ptr %7) #11
  %10 = load ptr, ptr %5, align 8, !tbaa !3
  store ptr %10, ptr %7, align 8, !tbaa !3
  %11 = load ptr, ptr %6, align 8, !tbaa !3
  %12 = getelementptr inbounds nuw %struct.edgeinfo, ptr %11, i32 0, i32 0
  %13 = load ptr, ptr %12, align 8, !tbaa !38
  %14 = load ptr, ptr %7, align 8, !tbaa !3
  %15 = getelementptr inbounds nuw %struct.edgeinfo, ptr %14, i32 0, i32 0
  %16 = load ptr, ptr %15, align 8, !tbaa !38
  %17 = icmp ugt ptr %13, %16
  br i1 %17, label %18, label %19

18:                                               ; preds = %2
  store i32 1, ptr %3, align 4
  store i32 1, ptr %8, align 4
  br label %135

19:                                               ; preds = %2
  %20 = load ptr, ptr %6, align 8, !tbaa !3
  %21 = getelementptr inbounds nuw %struct.edgeinfo, ptr %20, i32 0, i32 0
  %22 = load ptr, ptr %21, align 8, !tbaa !38
  %23 = load ptr, ptr %7, align 8, !tbaa !3
  %24 = getelementptr inbounds nuw %struct.edgeinfo, ptr %23, i32 0, i32 0
  %25 = load ptr, ptr %24, align 8, !tbaa !38
  %26 = icmp ult ptr %22, %25
  br i1 %26, label %27, label %28

27:                                               ; preds = %19
  store i32 -1, ptr %3, align 4
  store i32 1, ptr %8, align 4
  br label %135

28:                                               ; preds = %19
  %29 = load ptr, ptr %6, align 8, !tbaa !3
  %30 = getelementptr inbounds nuw %struct.edgeinfo, ptr %29, i32 0, i32 2
  %31 = load ptr, ptr %30, align 8, !tbaa !39
  %32 = load ptr, ptr %7, align 8, !tbaa !3
  %33 = getelementptr inbounds nuw %struct.edgeinfo, ptr %32, i32 0, i32 2
  %34 = load ptr, ptr %33, align 8, !tbaa !39
  %35 = icmp ugt ptr %31, %34
  br i1 %35, label %36, label %37

36:                                               ; preds = %28
  store i32 1, ptr %3, align 4
  store i32 1, ptr %8, align 4
  br label %135

37:                                               ; preds = %28
  %38 = load ptr, ptr %6, align 8, !tbaa !3
  %39 = getelementptr inbounds nuw %struct.edgeinfo, ptr %38, i32 0, i32 2
  %40 = load ptr, ptr %39, align 8, !tbaa !39
  %41 = load ptr, ptr %7, align 8, !tbaa !3
  %42 = getelementptr inbounds nuw %struct.edgeinfo, ptr %41, i32 0, i32 2
  %43 = load ptr, ptr %42, align 8, !tbaa !39
  %44 = icmp ult ptr %40, %43
  br i1 %44, label %45, label %46

45:                                               ; preds = %37
  store i32 -1, ptr %3, align 4
  store i32 1, ptr %8, align 4
  br label %135

46:                                               ; preds = %37
  %47 = load ptr, ptr %6, align 8, !tbaa !3
  %48 = getelementptr inbounds nuw %struct.edgeinfo, ptr %47, i32 0, i32 1
  %49 = getelementptr inbounds nuw %struct.pointf_s, ptr %48, i32 0, i32 0
  %50 = load double, ptr %49, align 8, !tbaa !40
  %51 = load ptr, ptr %7, align 8, !tbaa !3
  %52 = getelementptr inbounds nuw %struct.edgeinfo, ptr %51, i32 0, i32 1
  %53 = getelementptr inbounds nuw %struct.pointf_s, ptr %52, i32 0, i32 0
  %54 = load double, ptr %53, align 8, !tbaa !40
  %55 = fcmp ogt double %50, %54
  br i1 %55, label %56, label %57

56:                                               ; preds = %46
  store i32 1, ptr %3, align 4
  store i32 1, ptr %8, align 4
  br label %135

57:                                               ; preds = %46
  %58 = load ptr, ptr %6, align 8, !tbaa !3
  %59 = getelementptr inbounds nuw %struct.edgeinfo, ptr %58, i32 0, i32 1
  %60 = getelementptr inbounds nuw %struct.pointf_s, ptr %59, i32 0, i32 0
  %61 = load double, ptr %60, align 8, !tbaa !40
  %62 = load ptr, ptr %7, align 8, !tbaa !3
  %63 = getelementptr inbounds nuw %struct.edgeinfo, ptr %62, i32 0, i32 1
  %64 = getelementptr inbounds nuw %struct.pointf_s, ptr %63, i32 0, i32 0
  %65 = load double, ptr %64, align 8, !tbaa !40
  %66 = fcmp olt double %61, %65
  br i1 %66, label %67, label %68

67:                                               ; preds = %57
  store i32 -1, ptr %3, align 4
  store i32 1, ptr %8, align 4
  br label %135

68:                                               ; preds = %57
  %69 = load ptr, ptr %6, align 8, !tbaa !3
  %70 = getelementptr inbounds nuw %struct.edgeinfo, ptr %69, i32 0, i32 1
  %71 = getelementptr inbounds nuw %struct.pointf_s, ptr %70, i32 0, i32 1
  %72 = load double, ptr %71, align 8, !tbaa !41
  %73 = load ptr, ptr %7, align 8, !tbaa !3
  %74 = getelementptr inbounds nuw %struct.edgeinfo, ptr %73, i32 0, i32 1
  %75 = getelementptr inbounds nuw %struct.pointf_s, ptr %74, i32 0, i32 1
  %76 = load double, ptr %75, align 8, !tbaa !41
  %77 = fcmp ogt double %72, %76
  br i1 %77, label %78, label %79

78:                                               ; preds = %68
  store i32 1, ptr %3, align 4
  store i32 1, ptr %8, align 4
  br label %135

79:                                               ; preds = %68
  %80 = load ptr, ptr %6, align 8, !tbaa !3
  %81 = getelementptr inbounds nuw %struct.edgeinfo, ptr %80, i32 0, i32 1
  %82 = getelementptr inbounds nuw %struct.pointf_s, ptr %81, i32 0, i32 1
  %83 = load double, ptr %82, align 8, !tbaa !41
  %84 = load ptr, ptr %7, align 8, !tbaa !3
  %85 = getelementptr inbounds nuw %struct.edgeinfo, ptr %84, i32 0, i32 1
  %86 = getelementptr inbounds nuw %struct.pointf_s, ptr %85, i32 0, i32 1
  %87 = load double, ptr %86, align 8, !tbaa !41
  %88 = fcmp olt double %83, %87
  br i1 %88, label %89, label %90

89:                                               ; preds = %79
  store i32 -1, ptr %3, align 4
  store i32 1, ptr %8, align 4
  br label %135

90:                                               ; preds = %79
  %91 = load ptr, ptr %6, align 8, !tbaa !3
  %92 = getelementptr inbounds nuw %struct.edgeinfo, ptr %91, i32 0, i32 3
  %93 = getelementptr inbounds nuw %struct.pointf_s, ptr %92, i32 0, i32 0
  %94 = load double, ptr %93, align 8, !tbaa !42
  %95 = load ptr, ptr %7, align 8, !tbaa !3
  %96 = getelementptr inbounds nuw %struct.edgeinfo, ptr %95, i32 0, i32 3
  %97 = getelementptr inbounds nuw %struct.pointf_s, ptr %96, i32 0, i32 0
  %98 = load double, ptr %97, align 8, !tbaa !42
  %99 = fcmp ogt double %94, %98
  br i1 %99, label %100, label %101

100:                                              ; preds = %90
  store i32 1, ptr %3, align 4
  store i32 1, ptr %8, align 4
  br label %135

101:                                              ; preds = %90
  %102 = load ptr, ptr %6, align 8, !tbaa !3
  %103 = getelementptr inbounds nuw %struct.edgeinfo, ptr %102, i32 0, i32 3
  %104 = getelementptr inbounds nuw %struct.pointf_s, ptr %103, i32 0, i32 0
  %105 = load double, ptr %104, align 8, !tbaa !42
  %106 = load ptr, ptr %7, align 8, !tbaa !3
  %107 = getelementptr inbounds nuw %struct.edgeinfo, ptr %106, i32 0, i32 3
  %108 = getelementptr inbounds nuw %struct.pointf_s, ptr %107, i32 0, i32 0
  %109 = load double, ptr %108, align 8, !tbaa !42
  %110 = fcmp olt double %105, %109
  br i1 %110, label %111, label %112

111:                                              ; preds = %101
  store i32 -1, ptr %3, align 4
  store i32 1, ptr %8, align 4
  br label %135

112:                                              ; preds = %101
  %113 = load ptr, ptr %6, align 8, !tbaa !3
  %114 = getelementptr inbounds nuw %struct.edgeinfo, ptr %113, i32 0, i32 3
  %115 = getelementptr inbounds nuw %struct.pointf_s, ptr %114, i32 0, i32 1
  %116 = load double, ptr %115, align 8, !tbaa !43
  %117 = load ptr, ptr %7, align 8, !tbaa !3
  %118 = getelementptr inbounds nuw %struct.edgeinfo, ptr %117, i32 0, i32 3
  %119 = getelementptr inbounds nuw %struct.pointf_s, ptr %118, i32 0, i32 1
  %120 = load double, ptr %119, align 8, !tbaa !43
  %121 = fcmp ogt double %116, %120
  br i1 %121, label %122, label %123

122:                                              ; preds = %112
  store i32 1, ptr %3, align 4
  store i32 1, ptr %8, align 4
  br label %135

123:                                              ; preds = %112
  %124 = load ptr, ptr %6, align 8, !tbaa !3
  %125 = getelementptr inbounds nuw %struct.edgeinfo, ptr %124, i32 0, i32 3
  %126 = getelementptr inbounds nuw %struct.pointf_s, ptr %125, i32 0, i32 1
  %127 = load double, ptr %126, align 8, !tbaa !43
  %128 = load ptr, ptr %7, align 8, !tbaa !3
  %129 = getelementptr inbounds nuw %struct.edgeinfo, ptr %128, i32 0, i32 3
  %130 = getelementptr inbounds nuw %struct.pointf_s, ptr %129, i32 0, i32 1
  %131 = load double, ptr %130, align 8, !tbaa !43
  %132 = fcmp olt double %127, %131
  br i1 %132, label %133, label %134

133:                                              ; preds = %123
  store i32 -1, ptr %3, align 4
  store i32 1, ptr %8, align 4
  br label %135

134:                                              ; preds = %123
  store i32 0, ptr %3, align 4
  store i32 1, ptr %8, align 4
  br label %135

135:                                              ; preds = %134, %133, %122, %111, %100, %89, %78, %67, %56, %45, %36, %27, %18
  call void @llvm.lifetime.end.p0(i64 8, ptr %7) #11
  call void @llvm.lifetime.end.p0(i64 8, ptr %6) #11
  %136 = load i32, ptr %3, align 4
  ret i32 %136
}