; Function Attrs: mustprogress nofree norecurse nosync nounwind willreturn memory(argmem: read) uwtable
define internal range(i32 -1, 2) i32 @cmpitems(ptr noundef readonly captures(none) %0, ptr noundef readonly captures(none) %1) #2 {
  %3 = load ptr, ptr %0, align 8, !tbaa !37
  %4 = load ptr, ptr %1, align 8, !tbaa !37
  %5 = icmp ugt ptr %3, %4
  br i1 %5, label %48, label %6

6:                                                ; preds = %2
  %7 = icmp ult ptr %3, %4
  br i1 %7, label %48, label %8

8:                                                ; preds = %6
  %9 = getelementptr inbounds nuw i8, ptr %0, i64 24
  %10 = load ptr, ptr %9, align 8, !tbaa !38
  %11 = getelementptr inbounds nuw i8, ptr %1, i64 24
  %12 = load ptr, ptr %11, align 8, !tbaa !38
  %13 = icmp ugt ptr %10, %12
  br i1 %13, label %48, label %14

14:                                               ; preds = %8
  %15 = icmp ult ptr %10, %12
  br i1 %15, label %48, label %16

16:                                               ; preds = %14
  %17 = getelementptr inbounds nuw i8, ptr %0, i64 8
  %18 = load double, ptr %17, align 8, !tbaa !39
  %19 = getelementptr inbounds nuw i8, ptr %1, i64 8
  %20 = load double, ptr %19, align 8, !tbaa !39
  %21 = fcmp ogt double %18, %20
  br i1 %21, label %48, label %22

22:                                               ; preds = %16
  %23 = fcmp olt double %18, %20
  br i1 %23, label %48, label %24

24:                                               ; preds = %22
  %25 = getelementptr inbounds nuw i8, ptr %0, i64 16
  %26 = load double, ptr %25, align 8, !tbaa !40
  %27 = getelementptr inbounds nuw i8, ptr %1, i64 16
  %28 = load double, ptr %27, align 8, !tbaa !40
  %29 = fcmp ogt double %26, %28
  br i1 %29, label %48, label %30

30:                                               ; preds = %24
  %31 = fcmp olt double %26, %28
  br i1 %31, label %48, label %32

32:                                               ; preds = %30
  %33 = getelementptr inbounds nuw i8, ptr %0, i64 32
  %34 = load double, ptr %33, align 8, !tbaa !41
  %35 = getelementptr inbounds nuw i8, ptr %1, i64 32
  %36 = load double, ptr %35, align 8, !tbaa !41
  %37 = fcmp ogt double %34, %36
  br i1 %37, label %48, label %38

38:                                               ; preds = %32
  %39 = fcmp olt double %34, %36
  br i1 %39, label %48, label %40

40:                                               ; preds = %38
  %41 = getelementptr inbounds nuw i8, ptr %0, i64 40
  %42 = load double, ptr %41, align 8, !tbaa !42
  %43 = getelementptr inbounds nuw i8, ptr %1, i64 40
  %44 = load double, ptr %43, align 8, !tbaa !42
  %45 = fcmp ogt double %42, %44
  br i1 %45, label %48, label %46

46:                                               ; preds = %40
  %47 = fcmp olt double %42, %44
  %. = sext i1 %47 to i32
  br label %48

48:                                               ; preds = %46, %40, %38, %32, %30, %24, %22, %16, %14, %8, %6, %2
  %.0 = phi i32 [ 1, %2 ], [ -1, %6 ], [ 1, %8 ], [ -1, %14 ], [ 1, %16 ], [ -1, %22 ], [ 1, %24 ], [ -1, %30 ], [ 1, %32 ], [ -1, %38 ], [ 1, %40 ], [ %., %46 ]
  ret i32 %.0
}